target datalayout = "e-m:e-p270:32:32-p271:32:32-p272:64:64-i64:64-i128:128-f80:128-n8:16:32:64-S128"
target triple = "x86_64-pc-linux-gnu"

%struct._zval_struct = type { %union._zend_value, %union.anon, %union.anon.2 }
%union._zend_value = type { i64 }
%union.anon = type { i32 }
%union.anon.2 = type { i32 }
%struct._zend_refcounted_h = type { i32, %union.anon.3 }
%union.anon.3 = type { i32 }
%struct._zend_object = type { %struct._zend_refcounted_h, i32, ptr, ptr, ptr, [1 x %struct._zval_struct] }

@zend_ce_throwable = global ptr null, align 8
@.str.22 = private unnamed_addr constant [52 x i8] c"Need to supply an object when throwing an exception\00", align 1
@.str.23 = private unnamed_addr constant [53 x i8] c"Cannot throw objects that do not implement Throwable\00", align 1

; Function Attrs: nounwind uwtable
define void @zend_throw_exception_object(ptr noundef %0) #0 {
  %2 = alloca ptr, align 8
  %3 = alloca ptr, align 8
  %4 = alloca ptr, align 8
  %5 = alloca ptr, align 8
  %6 = alloca ptr, align 8
  store ptr %0, ptr %5, align 8
  %7 = load ptr, ptr %5, align 8
  %8 = icmp eq ptr %7, null
  br i1 %8, label %16, label %9

9:                                                ; preds = %1
  %10 = load ptr, ptr %5, align 8
  store ptr %10, ptr %4, align 8
  %11 = load ptr, ptr %4, align 8
  %12 = getelementptr inbounds %struct._zval_struct, ptr %11, i32 0, i32 1
  %13 = load i8, ptr %12, align 8
  %14 = zext i8 %13 to i32
  %15 = icmp ne i32 %14, 8
  br i1 %15, label %16, label %17

16:                                               ; preds = %9, %1
  call void (i32, ptr, ...) @zend_error_noreturn(i32 noundef 16, ptr noundef @.str.22) #13
  unreachable

17:                                               ; preds = %9
  %18 = load ptr, ptr %5, align 8
  %19 = getelementptr inbounds %struct._zval_struct, ptr %18, i32 0, i32 0
  %20 = load ptr, ptr %19, align 8
  %21 = getelementptr inbounds %struct._zend_object, ptr %20, i32 0, i32 2
  %22 = load ptr, ptr %21, align 8
  store ptr %22, ptr %6, align 8
  %23 = load ptr, ptr %6, align 8
  %24 = icmp ne ptr %23, null
  br i1 %24, label %25, label %37

25:                                               ; preds = %17
  %26 = load ptr, ptr %6, align 8
  %27 = load ptr, ptr @zend_ce_throwable, align 8
  store ptr %26, ptr %2, align 8
  store ptr %27, ptr %3, align 8
  %28 = load ptr, ptr %2, align 8
  %29 = load ptr, ptr %3, align 8
  %30 = icmp eq ptr %28, %29
  br i1 %30, label %35, label %31

31:                                               ; preds = %25
  %32 = load ptr, ptr %2, align 8
  %33 = load ptr, ptr %3, align 8
  %34 = call zeroext i1 @instanceof_function_slow(ptr noundef %32, ptr noundef %33) #12
  br label %35

35:                                               ; preds = %31, %25
  %36 = phi i1 [ true, %25 ], [ %34, %31 ]
  br i1 %36, label %39, label %37

37:                                               ; preds = %35, %17
  call void (ptr, ptr, ...) @zend_throw_error(ptr noundef null, ptr noundef @.str.23)
  %38 = load ptr, ptr %5, align 8
  call void @zval_ptr_dtor(ptr noundef %38)
  br label %43

39:                                               ; preds = %35
  %40 = load ptr, ptr %5, align 8
  %41 = getelementptr inbounds %struct._zval_struct, ptr %40, i32 0, i32 0
  %42 = load ptr, ptr %41, align 8
  call void @zend_throw_exception_internal(ptr noundef %42)
  br label %43

43:                                               ; preds = %39, %37
  ret void
}