; Function Attrs: nounwind uwtable
define void @zend_throw_exception_object(ptr noundef %0) local_unnamed_addr #0 {
  %2 = icmp eq ptr %0, null
  br i1 %2, label %6, label %3

3:                                                ; preds = %1
  %4 = getelementptr inbounds i8, ptr %0, i64 8
  %5 = load i8, ptr %4, align 8
  %.not = icmp eq i8 %5, 8
  br i1 %.not, label %7, label %6

6:                                                ; preds = %3, %1
  tail call void (i32, ptr, ...) @zend_error_noreturn(i32 noundef 16, ptr noundef nonnull @.str.22) #16
  unreachable

7:                                                ; preds = %3
  %8 = load ptr, ptr %0, align 8
  %9 = getelementptr inbounds i8, ptr %8, i64 16
  %10 = load ptr, ptr %9, align 8
  %.not14 = icmp eq ptr %10, null
  br i1 %.not14, label %16, label %11

11:                                               ; preds = %7
  %12 = load ptr, ptr @zend_ce_throwable, align 8
  %13 = icmp eq ptr %10, %12
  br i1 %13, label %.critedge, label %14

14:                                               ; preds = %11
  %15 = tail call zeroext i1 @instanceof_function_slow(ptr noundef nonnull %10, ptr noundef %12) #15
  br i1 %15, label %..critedge_crit_edge, label %16

..critedge_crit_edge:                             ; preds = %14
  %.pre = load ptr, ptr %0, align 8
  br label %.critedge

16:                                               ; preds = %14, %7
  tail call void (ptr, ptr, ...) @zend_throw_error(ptr noundef null, ptr noundef nonnull @.str.23) #15
  tail call void @zval_ptr_dtor(ptr noundef nonnull %0) #15
  br label %18

.critedge:                                        ; preds = %..critedge_crit_edge, %11
  %17 = phi ptr [ %.pre, %..critedge_crit_edge ], [ %8, %11 ]
  tail call void @zend_throw_exception_internal(ptr noundef %17)
  br label %18

18:                                               ; preds = %.critedge, %16
  ret void
}